target datalayout = "e-m:e-p270:32:32-p271:32:32-p272:64:64-i64:64-i128:128-f80:128-n8:16:32:64-S128"
target triple = "x86_64-pc-linux-gnu"

%struct._object = type { %union.anon, ptr }
%union.anon = type { i64 }
%struct.fileio = type { %struct._object, i32, i8, i8, ptr, ptr, ptr }

@_Py_NoneStruct = external global %struct._object, align 8
@.str.42 = private unnamed_addr constant [17 x i8] c"unclosed file %R\00", align 1
@PyExc_Warning = external global ptr, align 8

; Function Attrs: nounwind uwtable
define internal ptr @fileio_dealloc_warn(ptr noundef %0, ptr noundef %1) #0 {
  %3 = alloca ptr, align 8
  %4 = alloca ptr, align 8
  %5 = alloca ptr, align 8
  %6 = alloca ptr, align 8
  store ptr %0, ptr %3, align 8, !tbaa !4
  store ptr %1, ptr %4, align 8, !tbaa !4
  call void @llvm.lifetime.start.p0(i64 8, ptr %5) #9
  %7 = load ptr, ptr %3, align 8, !tbaa !4
  store ptr %7, ptr %5, align 8, !tbaa !15
  %8 = load ptr, ptr %5, align 8, !tbaa !15
  %9 = getelementptr inbounds nuw %struct.fileio, ptr %8, i32 0, i32 1
  %10 = load i32, ptr %9, align 8, !tbaa !9
  %11 = icmp sge i32 %10, 0
  br i1 %11, label %12, label %35

12:                                               ; preds = %2
  %13 = load ptr, ptr %5, align 8, !tbaa !15
  %14 = getelementptr inbounds nuw %struct.fileio, ptr %13, i32 0, i32 2
  %15 = load i8, ptr %14, align 4
  %16 = lshr i8 %15, 6
  %17 = and i8 %16, 1
  %18 = zext i8 %17 to i32
  %19 = icmp ne i32 %18, 0
  br i1 %19, label %20, label %35

20:                                               ; preds = %12
  call void @llvm.lifetime.start.p0(i64 8, ptr %6) #9
  %21 = call ptr @PyErr_GetRaisedException()
  store ptr %21, ptr %6, align 8, !tbaa !4
  %22 = load ptr, ptr %4, align 8, !tbaa !4
  %23 = load ptr, ptr %4, align 8, !tbaa !4
  %24 = call i32 (ptr, i64, ptr, ...) @PyErr_ResourceWarning(ptr noundef %22, i64 noundef 1, ptr noundef @.str.42, ptr noundef %23)
  %25 = icmp ne i32 %24, 0
  br i1 %25, label %26, label %33

26:                                               ; preds = %20
  %27 = load ptr, ptr @PyExc_Warning, align 8, !tbaa !4
  %28 = call i32 @PyErr_ExceptionMatches(ptr noundef %27)
  %29 = icmp ne i32 %28, 0
  br i1 %29, label %30, label %32

30:                                               ; preds = %26
  %31 = load ptr, ptr %5, align 8, !tbaa !15
  call void @PyErr_WriteUnraisable(ptr noundef %31)
  br label %32

32:                                               ; preds = %30, %26
  br label %33

33:                                               ; preds = %32, %20
  %34 = load ptr, ptr %6, align 8, !tbaa !4
  call void @PyErr_SetRaisedException(ptr noundef %34)
  call void @llvm.lifetime.end.p0(i64 8, ptr %6) #9
  br label %35

35:                                               ; preds = %33, %12, %2
  call void @llvm.lifetime.end.p0(i64 8, ptr %5) #9
  ret ptr @_Py_NoneStruct
}