; Function Attrs: nounwind uwtable
define internal noundef nonnull ptr @fileio_dealloc_warn(ptr noundef %0, ptr noundef %1) #1 {
  %3 = getelementptr inbounds nuw i8, ptr %0, i64 16
  %4 = load i32, ptr %3, align 8, !tbaa !4
  %5 = icmp sgt i32 %4, -1
  br i1 %5, label %6, label %18

6:                                                ; preds = %2
  %7 = getelementptr inbounds nuw i8, ptr %0, i64 20
  %8 = load i8, ptr %7, align 4
  %9 = and i8 %8, 64
  %.not = icmp eq i8 %9, 0
  br i1 %.not, label %18, label %10

10:                                               ; preds = %6
  %11 = tail call ptr @PyErr_GetRaisedException() #10
  %12 = tail call i32 (ptr, i64, ptr, ...) @PyErr_ResourceWarning(ptr noundef %1, i64 noundef 1, ptr noundef nonnull @.str.42, ptr noundef %1) #10
  %.not7 = icmp eq i32 %12, 0
  br i1 %.not7, label %17, label %13

13:                                               ; preds = %10
  %14 = load ptr, ptr @PyExc_Warning, align 8, !tbaa !21
  %15 = tail call i32 @PyErr_ExceptionMatches(ptr noundef %14) #10
  %.not8 = icmp eq i32 %15, 0
  br i1 %.not8, label %17, label %16

16:                                               ; preds = %13
  tail call void @PyErr_WriteUnraisable(ptr noundef nonnull %0) #10
  br label %17

17:                                               ; preds = %13, %16, %10
  tail call void @PyErr_SetRaisedException(ptr noundef %11) #10
  br label %18

18:                                               ; preds = %17, %6, %2
  ret ptr @_Py_NoneStruct
}